target datalayout = "e-m:e-p270:32:32-p271:32:32-p272:64:64-i64:64-i128:128-f80:128-n8:16:32:64-S128"
target triple = "x86_64-pc-linux-gnu"

%struct._object = type { i64, ptr }
%"struct.nanobind::detail::nb_ndarray" = type { %struct._object, ptr }

; Function Attrs: inlinehint mustprogress uwtable
define internal void @_ZL10_Py_DECREFP7_object(ptr noundef %0) #8 {
  %2 = alloca ptr, align 8
  store ptr %0, ptr %2, align 8
  %3 = load ptr, ptr %2, align 8
  %4 = getelementptr inbounds nuw %struct._object, ptr %3, i32 0, i32 0
  %5 = load i64, ptr %4, align 8
  %6 = add nsw i64 %5, -1
  store i64 %6, ptr %4, align 8
  %7 = icmp ne i64 %6, 0
  br i1 %7, label %8, label %9

8:                                                ; preds = %1
  br label %11

9:                                                ; preds = %1
  %10 = load ptr, ptr %2, align 8
  call void @_Py_Dealloc(ptr noundef %10)
  br label %11

11:                                               ; preds = %9, %8
  ret void
}

; Function Attrs: mustprogress uwtable
define internal void @_ZN8nanobind6detailL18nb_ndarray_deallocEP7_object(ptr noundef %0) #12 {
  %2 = alloca ptr, align 8
  %3 = alloca ptr, align 8
  store ptr %0, ptr %2, align 8
  call void @llvm.lifetime.start.p0(i64 8, ptr %3) #17
  %4 = load ptr, ptr %2, align 8
  %5 = getelementptr inbounds nuw %struct._object, ptr %4, i32 0, i32 1
  %6 = load ptr, ptr %5, align 8
  store ptr %6, ptr %3, align 8
  %7 = load ptr, ptr %2, align 8
  %8 = getelementptr inbounds nuw %"struct.nanobind::detail::nb_ndarray", ptr %7, i32 0, i32 1
  %9 = load ptr, ptr %8, align 8
  call void @_ZN8nanobind6detail15ndarray_dec_refEPNS0_14ndarray_handleE(ptr noundef %9) #17
  %10 = load ptr, ptr %2, align 8
  call void @PyObject_Free(ptr noundef %10)
  %11 = load ptr, ptr %3, align 8
  call void @_ZL10_Py_DECREFP7_object(ptr noundef %11)
  call void @llvm.lifetime.end.p0(i64 8, ptr %3) #17
  ret void
}