; Function Attrs: mustprogress uwtable
define internal void @_ZN8nanobind6detailL18nb_ndarray_deallocEP7_object(ptr noundef %0) #11 {
  %2 = getelementptr inbounds nuw i8, ptr %0, i64 8
  %3 = load ptr, ptr %2, align 8
  %4 = getelementptr inbounds nuw i8, ptr %0, i64 16
  %5 = load ptr, ptr %4, align 8
  tail call void @_ZN8nanobind6detail15ndarray_dec_refEPNS0_14ndarray_handleE(ptr noundef %5) #19
  tail call void @PyObject_Free(ptr noundef %0)
  %6 = load i64, ptr %3, align 8
  %7 = add nsw i64 %6, -1
  store i64 %7, ptr %3, align 8
  %.not.i = icmp eq i64 %7, 0
  br i1 %.not.i, label %8, label %_ZL10_Py_DECREFP7_object.exit

8:                                                ; preds = %1
  tail call void @_Py_Dealloc(ptr noundef nonnull %3)
  br label %_ZL10_Py_DECREFP7_object.exit

_ZL10_Py_DECREFP7_object.exit:                    ; preds = %1, %8
  ret void
}